target datalayout = "e-m:e-p270:32:32-p271:32:32-p272:64:64-i64:64-i128:128-f80:128-n8:16:32:64-S128"
target triple = "x86_64-pc-linux-gnu"

%struct.ParseRule = type { ptr, ptr, i32 }
%struct.Vmem = type { ptr, i64, i64 }
%struct.ParseContext_ = type { %struct.TokenData, i32, %union.SourceSpan, %union.SourceSpan, ptr, %struct.Lexer }
%struct.TokenData = type { ptr, i64, %union.anon.86 }
%union.anon.86 = type { %struct.anon.89 }
%struct.anon.89 = type { %struct.Int128_, i8 }
%struct.Int128_ = type { i64, i64 }
%union.SourceSpan = type { i64 }
%struct.Lexer = type { ptr, ptr, ptr, ptr, i32, i32, ptr, ptr, ptr, %struct.TokenData, %union.SourceSpan, i32, i32 }
%struct.Expr_ = type { ptr, %union.SourceSpan, i16, %union.anon.30 }
%union.anon.30 = type { %struct.ExprAnySwitch }
%struct.ExprAnySwitch = type { i8, %union.anon.32 }
%union.anon.32 = type { %struct.anon.33 }
%struct.anon.33 = type { ptr, %union.SourceSpan, ptr }
%struct.anon.0 = type { i16, i8, i8, i32 }
%struct.ExprCast = type { i8, i32, i32 }

@poisoned_expr = external global ptr, align 8
@expr_arena = external global %struct.Vmem, align 8
@.str.22 = private unnamed_addr constant [15 x i8] c"Expected '%s'.\00", align 1
@type_info_arena = external global %struct.Vmem, align 8
@.str.24 = private unnamed_addr constant [105 x i8] c"Unexpected start of a block '{' here. If you intended a compound literal, remove the () around the type.\00", align 1

; Function Attrs: nounwind uwtable
define internal i64 @extend_span_with_token(i64 %0, i64 %1) #0 {
  %3 = alloca %union.SourceSpan, align 8
  %4 = alloca %union.SourceSpan, align 8
  %5 = alloca %union.SourceSpan, align 8
  %6 = getelementptr inbounds %union.SourceSpan, ptr %4, i32 0, i32 0
  store i64 %0, ptr %6, align 8
  %7 = getelementptr inbounds %union.SourceSpan, ptr %5, i32 0, i32 0
  store i64 %1, ptr %7, align 8
  %8 = getelementptr inbounds %struct.anon.0, ptr %4, i32 0, i32 3
  %9 = load i32, ptr %8, align 4
  %10 = getelementptr inbounds %struct.anon.0, ptr %5, i32 0, i32 3
  %11 = load i32, ptr %10, align 4
  %12 = icmp ne i32 %9, %11
  br i1 %12, label %13, label %14

13:                                               ; preds = %2
  call void @llvm.memcpy.p0.p0.i64(ptr align 8 %3, ptr align 8 %4, i64 8, i1 false)
  br label %28

14:                                               ; preds = %2
  %15 = getelementptr inbounds %struct.anon.0, ptr %5, i32 0, i32 2
  %16 = load i8, ptr %15, align 1
  %17 = zext i8 %16 to i32
  %18 = getelementptr inbounds %struct.anon.0, ptr %5, i32 0, i32 1
  %19 = load i8, ptr %18, align 2
  %20 = zext i8 %19 to i32
  %21 = add nsw i32 %17, %20
  %22 = getelementptr inbounds %struct.anon.0, ptr %4, i32 0, i32 2
  %23 = load i8, ptr %22, align 1
  %24 = zext i8 %23 to i32
  %25 = sub nsw i32 %21, %24
  %26 = trunc i32 %25 to i8
  %27 = getelementptr inbounds %struct.anon.0, ptr %4, i32 0, i32 1
  store i8 %26, ptr %27, align 2
  call void @llvm.memcpy.p0.p0.i64(ptr align 8 %3, ptr align 8 %4, i64 8, i1 false)
  br label %28

28:                                               ; preds = %14, %13
  %29 = getelementptr inbounds %union.SourceSpan, ptr %3, i32 0, i32 0
  %30 = load i64, ptr %29, align 8
  ret i64 %30
}

; Function Attrs: nounwind uwtable
define internal i32 @type_infoid(ptr noundef %0) #0 {
  %2 = alloca ptr, align 8
  store ptr %0, ptr %2, align 8
  %3 = load ptr, ptr %2, align 8
  %4 = load ptr, ptr @type_info_arena, align 8
  %5 = ptrtoint ptr %3 to i64
  %6 = ptrtoint ptr %4 to i64
  %7 = sub i64 %5, %6
  %8 = sdiv exact i64 %7, 40
  %9 = trunc i64 %8 to i32
  ret i32 %9
}

; Function Attrs: nounwind uwtable
define internal i32 @exprid(ptr noundef %0) #0 {
  %2 = alloca ptr, align 8
  store ptr %0, ptr %2, align 8
  %3 = load ptr, ptr %2, align 8
  %4 = load ptr, ptr @expr_arena, align 8
  %5 = ptrtoint ptr %3 to i64
  %6 = ptrtoint ptr %4 to i64
  %7 = sub i64 %5, %6
  %8 = sdiv exact i64 %7, 56
  %9 = trunc i64 %8 to i32
  ret i32 %9
}

; Function Attrs: nounwind uwtable
define dso_local ptr @parse_expr(ptr noundef %0) #0 {
  %2 = alloca ptr, align 8
  store ptr %0, ptr %2, align 8
  %3 = load ptr, ptr %2, align 8
  %4 = call ptr @parse_precedence(ptr noundef %3, i32 noundef 1)
  ret ptr %4
}

; Function Attrs: nounwind uwtable
define internal ptr @parse_grouping_expr(ptr noundef %0, ptr noundef %1) #0 {
  %3 = alloca ptr, align 8
  %4 = alloca i32, align 4
  %5 = alloca i1, align 1
  %6 = alloca ptr, align 8
  %7 = alloca i32, align 4
  %8 = alloca ptr, align 8
  %9 = alloca i32, align 4
  %10 = alloca ptr, align 8
  %11 = alloca ptr, align 8
  %12 = alloca ptr, align 8
  %13 = alloca i32, align 4
  %14 = alloca ptr, align 8
  %15 = alloca ptr, align 8
  %16 = alloca ptr, align 8
  %17 = alloca ptr, align 8
  %18 = alloca ptr, align 8
  %19 = alloca ptr, align 8
  %20 = alloca ptr, align 8
  %21 = alloca %union.SourceSpan, align 8
  store ptr %0, ptr %15, align 8
  store ptr %1, ptr %16, align 8
  %22 = load ptr, ptr %15, align 8
  %23 = getelementptr inbounds %struct.ParseContext_, ptr %22, i32 0, i32 2
  %24 = getelementptr inbounds %union.SourceSpan, ptr %23, i32 0, i32 0
  %25 = load i64, ptr %24, align 8
  %26 = call ptr @expr_new(i32 noundef 32, i64 %25)
  store ptr %26, ptr %17, align 8
  %27 = load ptr, ptr %15, align 8
  store ptr %27, ptr %8, align 8
  store i32 19, ptr %9, align 4
  %28 = load ptr, ptr %8, align 8
  call void @advance(ptr noundef %28) #5
  %29 = load ptr, ptr %15, align 8
  %30 = call ptr @parse_expr(ptr noundef %29)
  store ptr %30, ptr %18, align 8
  %31 = load ptr, ptr %18, align 8
  store ptr %31, ptr %10, align 8
  %32 = load ptr, ptr %10, align 8
  %33 = icmp eq ptr %32, null
  br i1 %33, label %41, label %34

34:                                               ; preds = %2
  %35 = load ptr, ptr %10, align 8
  %36 = getelementptr inbounds %struct.Expr_, ptr %35, i32 0, i32 2
  %37 = load i16, ptr %36, align 8
  %38 = and i16 %37, 255
  %39 = zext i16 %38 to i32
  %40 = icmp ne i32 %39, 0
  br label %41

41:                                               ; preds = %34, %2
  %42 = phi i1 [ true, %2 ], [ %40, %34 ]
  br i1 %42, label %45, label %43

43:                                               ; preds = %41
  %44 = load ptr, ptr @poisoned_expr, align 8
  store ptr %44, ptr %14, align 8
  br label %163

45:                                               ; preds = %41
  %46 = load ptr, ptr %18, align 8
  %47 = load ptr, ptr %17, align 8
  %48 = getelementptr inbounds %struct.Expr_, ptr %47, i32 0, i32 3
  store ptr %46, ptr %48, align 8
  br label %49

49:                                               ; preds = %45
  %50 = load ptr, ptr %15, align 8
  store ptr %50, ptr %6, align 8
  store i32 26, ptr %7, align 4
  %51 = load ptr, ptr %6, align 8
  %52 = load i32, ptr %7, align 4
  store ptr %51, ptr %3, align 8
  store i32 %52, ptr %4, align 4
  %53 = load ptr, ptr %3, align 8
  %54 = getelementptr inbounds %struct.ParseContext_, ptr %53, i32 0, i32 1
  %55 = load i32, ptr %54, align 8
  %56 = load i32, ptr %4, align 4
  %57 = icmp eq i32 %55, %56
  br i1 %57, label %58, label %59

58:                                               ; preds = %49
  store i1 true, ptr %5, align 1
  br label %65

59:                                               ; preds = %49
  %60 = load ptr, ptr %6, align 8
  %61 = getelementptr inbounds %struct.ParseContext_, ptr %60, i32 0, i32 2
  %62 = load i32, ptr %7, align 4
  %63 = call ptr @token_type_to_string(i32 noundef %62) #5
  %64 = load i64, ptr %61, align 8
  call void (i64, ptr, ...) @sema_error_at(i64 %64, ptr noundef @.str.22, ptr noundef %63) #5
  store i1 false, ptr %5, align 1
  br label %65

65:                                               ; preds = %59, %58
  %66 = load i1, ptr %5, align 1
  br i1 %66, label %69, label %67

67:                                               ; preds = %65
  %68 = load ptr, ptr @poisoned_expr, align 8
  store ptr %68, ptr %14, align 8
  br label %163

69:                                               ; preds = %65
  %70 = load ptr, ptr %15, align 8
  call void @advance(ptr noundef %70)
  br label %71

71:                                               ; preds = %69
  %72 = load ptr, ptr %17, align 8
  %73 = getelementptr inbounds %struct.Expr_, ptr %72, i32 0, i32 3
  %74 = load ptr, ptr %73, align 8
  %75 = getelementptr inbounds %struct.Expr_, ptr %74, i32 0, i32 2
  %76 = load i16, ptr %75, align 8
  %77 = and i16 %76, 255
  %78 = zext i16 %77 to i32
  %79 = icmp eq i32 %78, 62
  br i1 %79, label %80, label %147

80:                                               ; preds = %71
  %81 = load ptr, ptr %17, align 8
  %82 = getelementptr inbounds %struct.Expr_, ptr %81, i32 0, i32 3
  %83 = load ptr, ptr %82, align 8
  %84 = getelementptr inbounds %struct.Expr_, ptr %83, i32 0, i32 3
  %85 = load ptr, ptr %84, align 8
  store ptr %85, ptr %19, align 8
  %86 = load ptr, ptr %15, align 8
  store ptr %86, ptr %12, align 8
  store i32 17, ptr %13, align 4
  %87 = load ptr, ptr %12, align 8
  %88 = getelementptr inbounds %struct.ParseContext_, ptr %87, i32 0, i32 1
  %89 = load i32, ptr %88, align 8
  %90 = load i32, ptr %13, align 4
  %91 = icmp eq i32 %89, %90
  br i1 %91, label %92, label %104

92:                                               ; preds = %80
  %93 = load ptr, ptr %19, align 8
  %94 = load i16, ptr %93, align 8
  %95 = and i16 %94, 7
  %96 = zext i16 %95 to i32
  %97 = icmp ne i32 %96, 2
  br i1 %97, label %98, label %104

98:                                               ; preds = %92
  %99 = load ptr, ptr %15, align 8
  %100 = getelementptr inbounds %struct.ParseContext_, ptr %99, i32 0, i32 2
  %101 = getelementptr inbounds %union.SourceSpan, ptr %100, i32 0, i32 0
  %102 = load i64, ptr %101, align 8
  call void (i64, ptr, ...) @sema_error_at(i64 %102, ptr noundef @.str.24)
  %103 = load ptr, ptr @poisoned_expr, align 8
  store ptr %103, ptr %14, align 8
  br label %163

104:                                              ; preds = %92, %80
  %105 = load ptr, ptr %15, align 8
  %106 = getelementptr inbounds %struct.ParseContext_, ptr %105, i32 0, i32 1
  %107 = load i32, ptr %106, align 8
  %108 = zext i32 %107 to i64
  %109 = getelementptr inbounds [190 x %struct.ParseRule], ptr @rules, i64 0, i64 %108
  %110 = getelementptr inbounds %struct.ParseRule, ptr %109, i32 0, i32 0
  %111 = load ptr, ptr %110, align 8
  %112 = icmp ne ptr %111, null
  br i1 %112, label %113, label %146

113:                                              ; preds = %104
  %114 = load ptr, ptr %15, align 8
  %115 = call ptr @parse_precedence(ptr noundef %114, i32 noundef 11)
  store ptr %115, ptr %20, align 8
  %116 = load ptr, ptr %20, align 8
  store ptr %116, ptr %11, align 8
  %117 = load ptr, ptr %11, align 8
  %118 = icmp eq ptr %117, null
  br i1 %118, label %126, label %119

119:                                              ; preds = %113
  %120 = load ptr, ptr %11, align 8
  %121 = getelementptr inbounds %struct.Expr_, ptr %120, i32 0, i32 2
  %122 = load i16, ptr %121, align 8
  %123 = and i16 %122, 255
  %124 = zext i16 %123 to i32
  %125 = icmp ne i32 %124, 0
  br label %126

126:                                              ; preds = %119, %113
  %127 = phi i1 [ true, %113 ], [ %125, %119 ]
  br i1 %127, label %130, label %128

128:                                              ; preds = %126
  %129 = load ptr, ptr @poisoned_expr, align 8
  store ptr %129, ptr %14, align 8
  br label %163

130:                                              ; preds = %126
  %131 = load ptr, ptr %20, align 8
  %132 = call i32 @exprid(ptr noundef %131)
  %133 = load ptr, ptr %17, align 8
  %134 = getelementptr inbounds %struct.Expr_, ptr %133, i32 0, i32 3
  %135 = getelementptr inbounds %struct.ExprCast, ptr %134, i32 0, i32 1
  store i32 %132, ptr %135, align 4
  %136 = load ptr, ptr %17, align 8
  %137 = getelementptr inbounds %struct.Expr_, ptr %136, i32 0, i32 2
  %138 = load i16, ptr %137, align 8
  %139 = and i16 %138, -256
  %140 = or i16 %139, 9
  store i16 %140, ptr %137, align 8
  %141 = load ptr, ptr %19, align 8
  %142 = call i32 @type_infoid(ptr noundef %141)
  %143 = load ptr, ptr %17, align 8
  %144 = getelementptr inbounds %struct.Expr_, ptr %143, i32 0, i32 3
  %145 = getelementptr inbounds %struct.ExprCast, ptr %144, i32 0, i32 2
  store i32 %142, ptr %145, align 8
  br label %146

146:                                              ; preds = %130, %104
  br label %147

147:                                              ; preds = %146, %71
  br label %148

148:                                              ; preds = %147
  %149 = load ptr, ptr %17, align 8
  %150 = getelementptr inbounds %struct.Expr_, ptr %149, i32 0, i32 1
  %151 = load ptr, ptr %17, align 8
  %152 = getelementptr inbounds %struct.Expr_, ptr %151, i32 0, i32 1
  %153 = load ptr, ptr %15, align 8
  %154 = getelementptr inbounds %struct.ParseContext_, ptr %153, i32 0, i32 3
  %155 = getelementptr inbounds %union.SourceSpan, ptr %152, i32 0, i32 0
  %156 = load i64, ptr %155, align 8
  %157 = getelementptr inbounds %union.SourceSpan, ptr %154, i32 0, i32 0
  %158 = load i64, ptr %157, align 8
  %159 = call i64 @extend_span_with_token(i64 %156, i64 %158)
  %160 = getelementptr inbounds %union.SourceSpan, ptr %21, i32 0, i32 0
  store i64 %159, ptr %160, align 8
  call void @llvm.memcpy.p0.p0.i64(ptr align 8 %150, ptr align 8 %21, i64 8, i1 false)
  br label %161

161:                                              ; preds = %148
  %162 = load ptr, ptr %17, align 8
  store ptr %162, ptr %14, align 8
  br label %163

163:                                              ; preds = %161, %128, %98, %67, %43
  %164 = load ptr, ptr %14, align 8
  ret ptr %164
}