; Function Attrs: nounwind uwtable
define internal ptr @parse_grouping_expr(ptr noundef %0, ptr nocapture readnone %1) #1 {
  %3 = getelementptr inbounds i8, ptr %0, i64 48
  %4 = load i64, ptr %3, align 8
  %5 = tail call ptr @expr_new(i32 noundef 32, i64 %4) #8
  tail call void @advance(ptr noundef %0) #8
  %6 = tail call fastcc ptr @parse_precedence(ptr noundef %0, i32 noundef 1)
  %7 = icmp eq ptr %6, null
  br i1 %7, label %.critedge, label %8

8:                                                ; preds = %2
  %9 = getelementptr inbounds i8, ptr %6, i64 16
  %10 = load i16, ptr %9, align 8
  %11 = and i16 %10, 255
  %.not = icmp eq i16 %11, 0
  br i1 %.not, label %12, label %.critedge

12:                                               ; preds = %8
  %13 = load ptr, ptr @poisoned_expr, align 8
  br label %81

.critedge:                                        ; preds = %2, %8
  %14 = getelementptr inbounds i8, ptr %5, i64 24
  store ptr %6, ptr %14, align 8
  %15 = getelementptr inbounds i8, ptr %0, i64 40
  %16 = load i32, ptr %15, align 8
  %17 = icmp eq i32 %16, 26
  br i1 %17, label %.critedge49, label %18

18:                                               ; preds = %.critedge
  %19 = tail call ptr @token_type_to_string(i32 noundef 26) #8
  %20 = load i64, ptr %3, align 8
  tail call void (i64, ptr, ...) @sema_error_at(i64 %20, ptr noundef nonnull @.str.22, ptr noundef %19) #8
  %21 = load ptr, ptr @poisoned_expr, align 8
  br label %81

.critedge49:                                      ; preds = %.critedge
  tail call void @advance(ptr noundef nonnull %0) #8
  %22 = load ptr, ptr %14, align 8
  %23 = getelementptr inbounds i8, ptr %22, i64 16
  %24 = load i16, ptr %23, align 8
  %25 = and i16 %24, 255
  %26 = icmp eq i16 %25, 62
  br i1 %26, label %27, label %66

27:                                               ; preds = %.critedge49
  %28 = getelementptr inbounds i8, ptr %22, i64 24
  %29 = load ptr, ptr %28, align 8
  %30 = load i32, ptr %15, align 8
  %31 = icmp eq i32 %30, 17
  br i1 %31, label %32, label %38

32:                                               ; preds = %27
  %33 = load i16, ptr %29, align 8
  %34 = and i16 %33, 7
  %.not45 = icmp eq i16 %34, 2
  br i1 %.not45, label %38, label %35

35:                                               ; preds = %32
  %36 = load i64, ptr %3, align 8
  tail call void (i64, ptr, ...) @sema_error_at(i64 %36, ptr noundef nonnull @.str.24) #8
  %37 = load ptr, ptr @poisoned_expr, align 8
  br label %81

38:                                               ; preds = %32, %27
  %39 = zext i32 %30 to i64
  %40 = getelementptr inbounds [190 x %struct.ParseRule], ptr @rules, i64 0, i64 %39
  %41 = load ptr, ptr %40, align 8
  %.not46 = icmp eq ptr %41, null
  br i1 %.not46, label %66, label %42

42:                                               ; preds = %38
  %43 = tail call fastcc ptr @parse_precedence(ptr noundef nonnull %0, i32 noundef 11)
  %44 = icmp eq ptr %43, null
  br i1 %44, label %.critedge2, label %45

45:                                               ; preds = %42
  %46 = getelementptr inbounds i8, ptr %43, i64 16
  %47 = load i16, ptr %46, align 8
  %48 = and i16 %47, 255
  %.not47 = icmp eq i16 %48, 0
  br i1 %.not47, label %50, label %.split

.split:                                           ; preds = %45
  %49 = ptrtoint ptr %43 to i64
  br label %.critedge2

50:                                               ; preds = %45
  %51 = load ptr, ptr @poisoned_expr, align 8
  br label %81

.critedge2:                                       ; preds = %42, %.split
  %.sink = phi i64 [ %49, %.split ], [ 0, %42 ]
  %.sink51 = load ptr, ptr @expr_arena, align 8
  %52 = ptrtoint ptr %.sink51 to i64
  %53 = sub i64 %.sink, %52
  %phi.call.in = sdiv exact i64 %53, 56
  %phi.call = trunc i64 %phi.call.in to i32
  %54 = getelementptr inbounds i8, ptr %5, i64 28
  store i32 %phi.call, ptr %54, align 4
  %55 = getelementptr inbounds i8, ptr %5, i64 16
  %56 = load i16, ptr %55, align 8
  %57 = and i16 %56, -256
  %58 = or disjoint i16 %57, 9
  store i16 %58, ptr %55, align 8
  %59 = load ptr, ptr @type_info_arena, align 8
  %60 = ptrtoint ptr %29 to i64
  %61 = ptrtoint ptr %59 to i64
  %62 = sub i64 %60, %61
  %63 = sdiv exact i64 %62, 40
  %64 = trunc i64 %63 to i32
  %65 = getelementptr inbounds i8, ptr %5, i64 32
  store i32 %64, ptr %65, align 8
  br label %66

66:                                               ; preds = %.critedge49, %.critedge2, %38
  %67 = getelementptr inbounds i8, ptr %5, i64 8
  %68 = getelementptr inbounds i8, ptr %0, i64 56
  %69 = load i64, ptr %67, align 8
  %70 = load i64, ptr %68, align 8
  %.not.unshifted.i = xor i64 %70, %69
  %.not.i = icmp ult i64 %.not.unshifted.i, 4294967296
  br i1 %.not.i, label %72, label %71

71:                                               ; preds = %66
  %.sroa.33.0.extract.shift.i = lshr i64 %69, 16
  br label %extend_span_with_token.exit

72:                                               ; preds = %66
  %.sroa.4.0.extract.shift.i = lshr i64 %69, 24
  %73 = trunc i64 %70 to i32
  %74 = lshr i32 %73, 24
  %75 = lshr i32 %73, 16
  %76 = trunc i64 %.sroa.4.0.extract.shift.i to i32
  %77 = sub i32 %75, %76
  %78 = add i32 %77, %74
  %79 = zext i32 %78 to i64
  br label %extend_span_with_token.exit

extend_span_with_token.exit:                      ; preds = %71, %72
  %.sroa.311.0.i = phi i64 [ %.sroa.33.0.extract.shift.i, %71 ], [ %79, %72 ]
  %.sroa.311.0.insert.ext.i = shl nuw i64 %.sroa.311.0.i, 16
  %.sroa.311.0.insert.shift.i = and i64 %.sroa.311.0.insert.ext.i, 16711680
  %80 = and i64 %69, -16711681
  %.sroa.010.0.insert.insert.i = or disjoint i64 %.sroa.311.0.insert.shift.i, %80
  store i64 %.sroa.010.0.insert.insert.i, ptr %67, align 8
  br label %81

81:                                               ; preds = %extend_span_with_token.exit, %50, %35, %18, %12
  %.041 = phi ptr [ %37, %35 ], [ %5, %extend_span_with_token.exit ], [ %51, %50 ], [ %21, %18 ], [ %13, %12 ]
  ret ptr %.041
}